; Function Attrs: nounwind uwtable
define internal fastcc i32 @getFrameCount(ptr noundef %0) unnamed_addr #0 {
  %2 = alloca i32, align 4
  store i32 0, ptr %2, align 4
  %3 = load ptr, ptr @gdata, align 8
  %4 = getelementptr inbounds i8, ptr %3, i64 528
  %5 = load i32, ptr %4, align 8
  %6 = and i32 %5, 4
  %.not = icmp eq i32 %6, 0
  br i1 %.not, label %8, label %7

7:                                                ; preds = %1
  tail call void @log_message_begin(ptr noundef nonnull @.str.13, ptr noundef nonnull @.str.4, i32 noundef 41) #4
  tail call void (ptr, ...) @log_message_end(ptr noundef nonnull @.str.14, ptr noundef nonnull @.str.33) #4
  %.pre = load ptr, ptr @gdata, align 8
  br label %8

8:                                                ; preds = %1, %7
  %9 = phi ptr [ %3, %1 ], [ %.pre, %7 ]
  %10 = load ptr, ptr %9, align 8
  %11 = load ptr, ptr %10, align 8
  %12 = getelementptr inbounds i8, ptr %11, i64 120
  %13 = load ptr, ptr %12, align 8
  %14 = call i32 %13(ptr noundef nonnull %10, ptr noundef %0, ptr noundef nonnull %2) #4
  %.not4 = icmp eq i32 %14, 0
  br i1 %.not4, label %18, label %15

15:                                               ; preds = %8
  %16 = load ptr, ptr @stderr, align 8
  %17 = call ptr @jvmtiErrorText(i32 noundef %14) #4
  call void (ptr, ptr, ptr, ptr, ...) @print_message(ptr noundef %16, ptr noundef nonnull @.str, ptr noundef nonnull @.str.1, ptr noundef nonnull @.str.2, ptr noundef %17, i32 noundef %14, ptr noundef nonnull @.str.34, ptr noundef nonnull @.str.4, i32 noundef 44) #4
  call void @debugInit_exit(i32 noundef %14, ptr noundef nonnull @.str.34) #4
  br label %18

18:                                               ; preds = %15, %8
  %19 = load i32, ptr %2, align 4
  ret i32 %19
}